libCGAL.so.13:_ZN4CGAL12warning_failEPKcS1_iS1_
libCGAL.so.13:_ZN4CGAL14assertion_failEPKcS1_iS1_
libCGAL.so.13:_ZN4CGAL14set_ascii_modeERSt9basic_iosIcSt11char_traitsIcEE
libCGAL.so.13:_ZN4CGAL15File_header_OFFC1ERKNS_24File_header_extended_OFFE
libCGAL.so.13:_ZN4CGAL15File_header_OFFC1ERKNS_24File_header_extended_OFFEbbb
libCGAL.so.13:_ZN4CGAL15File_header_OFFC1Eb
libCGAL.so.13:_ZN4CGAL15File_header_OFFC1Ebbbb
libCGAL.so.13:_ZN4CGAL15File_header_OFFC1EmmmRKNS_24File_header_extended_OFFE
libCGAL.so.13:_ZN4CGAL15File_header_OFFC1EmmmRKNS_24File_header_extended_OFFEbbb
libCGAL.so.13:_ZN4CGAL15File_header_OFFC1Emmmbbbb
libCGAL.so.13:_ZN4CGAL15File_header_OFFC2ERKNS_24File_header_extended_OFFE
libCGAL.so.13:_ZN4CGAL15File_header_OFFC2ERKNS_24File_header_extended_OFFEbbb
libCGAL.so.13:_ZN4CGAL15File_header_OFFC2Eb
libCGAL.so.13:_ZN4CGAL15File_header_OFFC2Ebbbb
libCGAL.so.13:_ZN4CGAL15File_header_OFFC2EmmmRKNS_24File_header_extended_OFFE
libCGAL.so.13:_ZN4CGAL15File_header_OFFC2EmmmRKNS_24File_header_extended_OFFEbbb
libCGAL.so.13:_ZN4CGAL15File_header_OFFC2Emmmbbbb
libCGAL.so.13:_ZN4CGAL15File_header_OFFpLERKS0_
libCGAL.so.13:_ZN4CGAL15File_writer_OFF12write_headerERSommmb
libCGAL.so.13:_ZN4CGAL15Geomview_stream10get_new_idERKNSt7__cxx1112basic_stringIcSt11char_traitsIcESaIcEEE
libCGAL.so.13:_ZN4CGAL15Geomview_stream11parse_pointEPKcRdS3_S3_S3_
libCGAL.so.13:_ZN4CGAL15Geomview_stream12set_bg_colorERKNS_5ColorE
libCGAL.so.13:_ZN4CGAL15Geomview_stream13look_recenterEv
libCGAL.so.13:_ZN4CGAL15Geomview_stream14set_edge_colorERKNS_5ColorE
libCGAL.so.13:_ZN4CGAL15Geomview_stream14set_face_colorERKNS_5ColorE
libCGAL.so.13:_ZN4CGAL15Geomview_stream14setup_geomviewEPKcS2_
libCGAL.so.13:_ZN4CGAL15Geomview_stream16set_vertex_colorERKNS_5ColorE
libCGAL.so.13:_ZN4CGAL15Geomview_stream3nthEPci
libCGAL.so.13:_ZN4CGAL15Geomview_stream5clearEv
libCGAL.so.13:_ZN4CGAL15Geomview_stream5frameERKNS_6Bbox_3E
libCGAL.so.13:_ZN4CGAL15Geomview_stream9pickplaneERKNS_6Bbox_3E
libCGAL.so.13:_ZN4CGAL15Geomview_streamC1ERKNS_6Bbox_3EPKcS5_
libCGAL.so.13:_ZN4CGAL15Geomview_streamC2ERKNS_6Bbox_3EPKcS5_
libCGAL.so.13:_ZN4CGAL15Geomview_streamD1Ev
libCGAL.so.13:_ZN4CGAL15Geomview_streamD2Ev
libCGAL.so.13:_ZN4CGAL15Geomview_streamlsERKNS_5ColorE
libCGAL.so.13:_ZN4CGAL15Geomview_streamlsERKNSt7__cxx1112basic_stringIcSt11char_traitsIcESaIcEEE
libCGAL.so.13:_ZN4CGAL15Geomview_streamlsEd
libCGAL.so.13:_ZN4CGAL15Geomview_streamlsEi
libCGAL.so.13:_ZN4CGAL15Geomview_streamlsEj
libCGAL.so.13:_ZN4CGAL15Geomview_streamlsEl
libCGAL.so.13:_ZN4CGAL15Geomview_streamlsEm
libCGAL.so.13:_ZN4CGAL15Geomview_streamrsEPc
libCGAL.so.13:_ZN4CGAL15set_binary_modeERSt9basic_iosIcSt11char_traitsIcEE
libCGAL.so.13:_ZN4CGAL15set_pretty_modeERSt9basic_iosIcSt11char_traitsIcEE
libCGAL.so.13:_ZN4CGAL16File_scanner_OFF18skip_to_next_facetEm
libCGAL.so.13:_ZN4CGAL16File_scanner_OFF19skip_to_next_vertexEm
libCGAL.so.13:_ZN4CGAL17precondition_failEPKcS1_iS1_
libCGAL.so.13:_ZN4CGAL17set_error_handlerEPFvPKcS1_S1_iS1_E
libCGAL.so.13:_ZN4CGAL18File_writer_VRML_212write_headerERSommm
libCGAL.so.13:_ZN4CGAL18postcondition_failEPKcS1_iS1_
libCGAL.so.13:_ZN4CGAL19set_error_behaviourENS_17Failure_behaviourE
libCGAL.so.13:_ZN4CGAL19set_warning_handlerEPFvPKcS1_S1_iS1_E
libCGAL.so.13:_ZN4CGAL20File_writer_inventor12write_headerERSommm
libCGAL.so.13:_ZN4CGAL21File_writer_wavefront12write_headerERSommm
libCGAL.so.13:_ZN4CGAL21set_warning_behaviourENS_17Failure_behaviourE
libCGAL.so.13:_ZN4CGAL24File_header_extended_OFFpLERKS0_
libCGAL.so.13:_ZN4CGAL6Random13restore_stateERKNS0_5StateE
libCGAL.so.13:_ZN4CGAL6RandomC1ENS_8internal17Random_print_seedE
libCGAL.so.13:_ZN4CGAL6RandomC1Ej
libCGAL.so.13:_ZN4CGAL6RandomC1Ev
libCGAL.so.13:_ZN4CGAL6RandomC2ENS_8internal17Random_print_seedE
libCGAL.so.13:_ZN4CGAL6RandomC2Ej
libCGAL.so.13:_ZN4CGAL6RandomC2Ev
libCGAL.so.13:_ZN4CGAL7swallowERSiRKNSt7__cxx1112basic_stringIcSt11char_traitsIcESaIcEEE
libCGAL.so.13:_ZN4CGAL7swallowERSic
libCGAL.so.13:_ZN4CGAL8get_modeERSt9basic_iosIcSt11char_traitsIcEE
libCGAL.so.13:_ZN4CGAL8is_asciiERSt9basic_iosIcSt11char_traitsIcEE
libCGAL.so.13:_ZN4CGAL8set_modeERSt9basic_iosIcSt11char_traitsIcEENS_2IO4ModeE
libCGAL.so.13:_ZN4CGAL9is_binaryERSt9basic_iosIcSt11char_traitsIcEE
libCGAL.so.13:_ZN4CGAL9is_prettyERSt9basic_iosIcSt11char_traitsIcEE
libCGAL.so.13:_ZN4CGAL9mode_nameENS_2IO4ModeE
libCGAL.so.13:_ZN4CGALlsERNS_15Geomview_streamERKNS_6Bbox_2E
libCGAL.so.13:_ZN4CGALlsERNS_15Geomview_streamERKNS_6Bbox_3E
libCGAL.so.13:_ZN4CGALlsERSoRKNS_15File_header_OFFE
libCGAL.so.13:_ZN4CGALlsERSoRKNS_24File_header_extended_OFFE
libCGAL.so.13:_ZN4CGALrsERSiRNS_15File_header_OFFE
libCGAL.so.13:_ZN4CGALrsERSiRNS_24File_header_extended_OFFE
libCGAL.so.13:_ZNK4CGAL10Real_timer13get_real_timeEv
libCGAL.so.13:_ZNK4CGAL10Real_timer17compute_precisionEv
libCGAL.so.13:_ZNK4CGAL10Real_timer9precisionEv
libCGAL.so.13:_ZNK4CGAL15Geomview_stream14get_edge_colorEv
libCGAL.so.13:_ZNK4CGAL15Geomview_stream14get_face_colorEv
libCGAL.so.13:_ZNK4CGAL15Geomview_stream16get_vertex_colorEv
libCGAL.so.13:_ZNK4CGAL15Geomview_stream3ecbEv
libCGAL.so.13:_ZNK4CGAL15Geomview_stream3ecgEv
libCGAL.so.13:_ZNK4CGAL15Geomview_stream3ecrEv
libCGAL.so.13:_ZNK4CGAL15Geomview_stream3fcbEv
libCGAL.so.13:_ZNK4CGAL15Geomview_stream3fcgEv
libCGAL.so.13:_ZNK4CGAL15Geomview_stream3fcrEv
libCGAL.so.13:_ZNK4CGAL15Geomview_stream3vcbEv
libCGAL.so.13:_ZNK4CGAL15Geomview_stream3vcgEv
libCGAL.so.13:_ZNK4CGAL15Geomview_stream3vcrEv
libCGAL.so.13:_ZNK4CGAL18File_writer_VRML_212write_footerEv
libCGAL.so.13:_ZNK4CGAL18File_writer_VRML_218write_facet_headerEv
libCGAL.so.13:_ZNK4CGAL20File_writer_inventor12write_footerEv
libCGAL.so.13:_ZNK4CGAL20File_writer_inventor18write_facet_headerEv
libCGAL.so.13:_ZNK4CGAL24File_header_extended_OFF11format_nameB5cxx11Ev
libCGAL.so.13:_ZNK4CGAL24File_header_extended_OFF6is_CBPEv
libCGAL.so.13:_ZNK4CGAL24File_header_extended_OFF6is_POLEv
libCGAL.so.13:_ZNK4CGAL24File_header_extended_OFF6is_TRNEv
libCGAL.so.13:_ZNK4CGAL24File_header_extended_OFF6suffixB5cxx11Ev
libCGAL.so.13:_ZNK4CGAL24File_header_extended_OFF7is_CBPnEv
libCGAL.so.13:_ZNK4CGAL24File_header_extended_OFF7is_TRNnEv
libCGAL.so.13:_ZNK4CGAL5Timer17compute_precisionEv
libCGAL.so.13:_ZNK4CGAL5Timer17user_process_timeEv
libCGAL.so.13:_ZNK4CGAL5Timer3maxEv
libCGAL.so.13:_ZNK4CGAL5Timer9precisionEv
libCGAL.so.13:_ZNK4CGAL6Random10save_stateERNS0_5StateE
libCGAL.so.13:_ZNK4CGAL6Random8get_seedEv
libCGAL_Core.so.13:_ZN4CORE10UnaryOpRep12initNodeInfoEv
libCGAL_Core.so.13:_ZN4CORE10UnaryOpRep9clearFlagEv
libCGAL_Core.so.13:_ZN4CORE10core_errorENSt7__cxx1112basic_stringIcSt11char_traitsIcESaIcEEES5_ib
libCGAL_Core.so.13:_ZN4CORE11BigFloatRep10fromStringEPKcNS_7extLongE
libCGAL_Core.so.13:_ZN4CORE11BigFloatRep3addERKS0_S2_
libCGAL_Core.so.13:_ZN4CORE11BigFloatRep3divERKNS_6BigIntES3_RKNS_7extLongES6_
libCGAL_Core.so.13:_ZN4CORE11BigFloatRep3divERKS0_S2_RKNS_7extLongE
libCGAL_Core.so.13:_ZN4CORE11BigFloatRep3mulERKS0_S2_
libCGAL_Core.so.13:_ZN4CORE11BigFloatRep3subERKS0_S2_
libCGAL_Core.so.13:_ZN4CORE11BigFloatRep4div2ERKS0_
libCGAL_Core.so.13:_ZN4CORE11BigFloatRep4sqrtERKNS_6BigIntERKNS_7extLongE
libCGAL_Core.so.13:_ZN4CORE11BigFloatRep4sqrtERKNS_6BigIntERKNS_7extLongERKNS_8BigFloatE
libCGAL_Core.so.13:_ZN4CORE11BigFloatRep4sqrtERKS0_RKNS_7extLongE
libCGAL_Core.so.13:_ZN4CORE11BigFloatRep4sqrtERKS0_RKNS_7extLongERKNS_8BigFloatE
libCGAL_Core.so.13:_ZN4CORE11BigFloatRep5truncERKNS_6BigIntERKNS_7extLongES6_
libCGAL_Core.so.13:_ZN4CORE11BigFloatRep6approxERKS0_RKNS_7extLongES5_
libCGAL_Core.so.13:_ZN4CORE11BigFloatRep6normalEv
libCGAL_Core.so.13:_ZN4CORE11BigFloatRep6truncMERKS0_RKNS_7extLongES5_
libCGAL_Core.so.13:_ZN4CORE11BigFloatRep9bigNormalERNS_6BigIntE
libCGAL_Core.so.13:_ZN4CORE11BigFloatRep9centerizeERKS0_S2_
libCGAL_Core.so.13:_ZN4CORE11BigFloatRepC1Ed
libCGAL_Core.so.13:_ZN4CORE11BigFloatRepC2Ed
libCGAL_Core.so.13:_ZN4CORE11BigFloatRepdlEPvm
libCGAL_Core.so.13:_ZN4CORE11BigFloatRepnwEm
libCGAL_Core.so.13:_ZN4CORE11BigFloatReprsERSi
libCGAL_Core.so.13:_ZN4CORE11IntExponentEd
libCGAL_Core.so.13:_ZN4CORE11IntMantissaEd
libCGAL_Core.so.13:_ZN4CORE11append_charERPcRiic
libCGAL_Core.so.13:_ZN4CORE11read_stringERSiRPci
libCGAL_Core.so.13:_ZN4CORE11writeToFileERKNS_6BigIntERSoii
libCGAL_Core.so.13:_ZN4CORE11writeToFileERKNS_8BigFloatERSoii
libCGAL_Core.so.13:_ZN4CORE12ConstPolyRepINS_4ExprEE12initNodeInfoEv
libCGAL_Core.so.13:_ZN4CORE12ConstPolyRepINS_4ExprEE17computeExactFlagsEv
libCGAL_Core.so.13:_ZN4CORE12ConstPolyRepINS_4ExprEE18computeApproxValueERKNS_7extLongES5_
libCGAL_Core.so.13:_ZN4CORE12ConstPolyRepINS_4ExprEE20computeFilteredValueEv
libCGAL_Core.so.13:_ZN4CORE12ConstPolyRepINS_4ExprEEC1ERKNS_10PolynomialIS1_EERKSt4pairINS_8BigFloatES8_E
libCGAL_Core.so.13:_ZN4CORE12ConstPolyRepINS_4ExprEEC1ERKNS_10PolynomialIS1_EEi
libCGAL_Core.so.13:_ZN4CORE12ConstPolyRepINS_4ExprEEC1Ev
libCGAL_Core.so.13:_ZN4CORE12ConstPolyRepINS_4ExprEEC2ERKNS_10PolynomialIS1_EERKSt4pairINS_8BigFloatES8_E
libCGAL_Core.so.13:_ZN4CORE12ConstPolyRepINS_4ExprEEC2ERKNS_10PolynomialIS1_EEi
libCGAL_Core.so.13:_ZN4CORE12ConstPolyRepINS_4ExprEEC2Ev
libCGAL_Core.so.13:_ZN4CORE12ConstPolyRepINS_4ExprEED0Ev
libCGAL_Core.so.13:_ZN4CORE12ConstPolyRepINS_4ExprEED1Ev
libCGAL_Core.so.13:_ZN4CORE12ConstPolyRepINS_4ExprEED2Ev
libCGAL_Core.so.13:_ZN4CORE12ConstPolyRepINS_4ExprEEdlEPvm
libCGAL_Core.so.13:_ZN4CORE12ConstPolyRepINS_4ExprEEnwEm
libCGAL_Core.so.13:_ZN4CORE12ConstPolyRepINS_6BigIntEE12initNodeInfoEv
libCGAL_Core.so.13:_ZN4CORE12ConstPolyRepINS_6BigIntEE17computeExactFlagsEv
libCGAL_Core.so.13:_ZN4CORE12ConstPolyRepINS_6BigIntEE18computeApproxValueERKNS_7extLongES5_
libCGAL_Core.so.13:_ZN4CORE12ConstPolyRepINS_6BigIntEE20computeFilteredValueEv
libCGAL_Core.so.13:_ZN4CORE12ConstPolyRepINS_6BigIntEEC1ERKNS_10PolynomialIS1_EERKSt4pairINS_8BigFloatES8_E
libCGAL_Core.so.13:_ZN4CORE12ConstPolyRepINS_6BigIntEEC1ERKNS_10PolynomialIS1_EEi
libCGAL_Core.so.13:_ZN4CORE12ConstPolyRepINS_6BigIntEEC1Ev
libCGAL_Core.so.13:_ZN4CORE12ConstPolyRepINS_6BigIntEEC2ERKNS_10PolynomialIS1_EERKSt4pairINS_8BigFloatES8_E
libCGAL_Core.so.13:_ZN4CORE12ConstPolyRepINS_6BigIntEEC2ERKNS_10PolynomialIS1_EEi
libCGAL_Core.so.13:_ZN4CORE12ConstPolyRepINS_6BigIntEEC2Ev
libCGAL_Core.so.13:_ZN4CORE12ConstPolyRepINS_6BigIntEED0Ev
libCGAL_Core.so.13:_ZN4CORE12ConstPolyRepINS_6BigIntEED1Ev
libCGAL_Core.so.13:_ZN4CORE12ConstPolyRepINS_6BigIntEED2Ev
libCGAL_Core.so.13:_ZN4CORE12ConstPolyRepINS_6BigIntEEdlEPvm
libCGAL_Core.so.13:_ZN4CORE12ConstPolyRepINS_6BigIntEEnwEm
libCGAL_Core.so.13:_ZN4CORE12ConstPolyRepINS_6BigRatEE12initNodeInfoEv
libCGAL_Core.so.13:_ZN4CORE12ConstPolyRepINS_6BigRatEE17computeExactFlagsEv
libCGAL_Core.so.13:_ZN4CORE12ConstPolyRepINS_6BigRatEE18computeApproxValueERKNS_7extLongES5_
libCGAL_Core.so.13:_ZN4CORE12ConstPolyRepINS_6BigRatEE20computeFilteredValueEv
libCGAL_Core.so.13:_ZN4CORE12ConstPolyRepINS_6BigRatEEC1ERKNS_10PolynomialIS1_EERKSt4pairINS_8BigFloatES8_E
libCGAL_Core.so.13:_ZN4CORE12ConstPolyRepINS_6BigRatEEC1ERKNS_10PolynomialIS1_EEi
libCGAL_Core.so.13:_ZN4CORE12ConstPolyRepINS_6BigRatEEC1Ev
libCGAL_Core.so.13:_ZN4CORE12ConstPolyRepINS_6BigRatEEC2ERKNS_10PolynomialIS1_EERKSt4pairINS_8BigFloatES8_E
libCGAL_Core.so.13:_ZN4CORE12ConstPolyRepINS_6BigRatEEC2ERKNS_10PolynomialIS1_EEi
libCGAL_Core.so.13:_ZN4CORE12ConstPolyRepINS_6BigRatEEC2Ev
libCGAL_Core.so.13:_ZN4CORE12ConstPolyRepINS_6BigRatEED0Ev
libCGAL_Core.so.13:_ZN4CORE12ConstPolyRepINS_6BigRatEED1Ev
libCGAL_Core.so.13:_ZN4CORE12ConstPolyRepINS_6BigRatEED2Ev
libCGAL_Core.so.13:_ZN4CORE12ConstPolyRepINS_6BigRatEEdlEPvm
libCGAL_Core.so.13:_ZN4CORE12ConstPolyRepINS_6BigRatEEnwEm
libCGAL_Core.so.13:_ZN4CORE12ConstPolyRepINS_8BigFloatEE12initNodeInfoEv
libCGAL_Core.so.13:_ZN4CORE12ConstPolyRepINS_8BigFloatEE17computeExactFlagsEv
libCGAL_Core.so.13:_ZN4CORE12ConstPolyRepINS_8BigFloatEE18computeApproxValueERKNS_7extLongES5_
libCGAL_Core.so.13:_ZN4CORE12ConstPolyRepINS_8BigFloatEE20computeFilteredValueEv
libCGAL_Core.so.13:_ZN4CORE12ConstPolyRepINS_8BigFloatEEC1ERKNS_10PolynomialIS1_EERKSt4pairIS1_S1_E
libCGAL_Core.so.13:_ZN4CORE12ConstPolyRepINS_8BigFloatEEC1ERKNS_10PolynomialIS1_EEi
libCGAL_Core.so.13:_ZN4CORE12ConstPolyRepINS_8BigFloatEEC1Ev
libCGAL_Core.so.13:_ZN4CORE12ConstPolyRepINS_8BigFloatEEC2ERKNS_10PolynomialIS1_EERKSt4pairIS1_S1_E
libCGAL_Core.so.13:_ZN4CORE12ConstPolyRepINS_8BigFloatEEC2ERKNS_10PolynomialIS1_EEi
libCGAL_Core.so.13:_ZN4CORE12ConstPolyRepINS_8BigFloatEEC2Ev
libCGAL_Core.so.13:_ZN4CORE12ConstPolyRepINS_8BigFloatEED0Ev
libCGAL_Core.so.13:_ZN4CORE12ConstPolyRepINS_8BigFloatEED1Ev
libCGAL_Core.so.13:_ZN4CORE12ConstPolyRepINS_8BigFloatEED2Ev
libCGAL_Core.so.13:_ZN4CORE12ConstPolyRepINS_8BigFloatEEdlEPvm
libCGAL_Core.so.13:_ZN4CORE12ConstPolyRepINS_8BigFloatEEnwEm
libCGAL_Core.so.13:_ZN4CORE12ConstRealRep17computeExactFlagsEv
libCGAL_Core.so.13:_ZN4CORE12ConstRealRep18computeApproxValueERKNS_7extLongES3_
libCGAL_Core.so.13:_ZN4CORE12ConstRealRepC1ERKNS_4RealE
libCGAL_Core.so.13:_ZN4CORE12ConstRealRepC2ERKNS_4RealE
libCGAL_Core.so.13:_ZN4CORE12ConstRealRepdlEPvm
libCGAL_Core.so.13:_ZN4CORE12ConstRealRepnwEm
libCGAL_Core.so.13:_ZN4CORE12Realbase_forINS_6BigIntEED0Ev
libCGAL_Core.so.13:_ZN4CORE12Realbase_forINS_6BigIntEED1Ev
libCGAL_Core.so.13:_ZN4CORE12Realbase_forINS_6BigIntEED2Ev
libCGAL_Core.so.13:_ZN4CORE12Realbase_forINS_6BigIntEEdlEPvm
libCGAL_Core.so.13:_ZN4CORE12Realbase_forINS_6BigIntEEnwEm
libCGAL_Core.so.13:_ZN4CORE12Realbase_forINS_6BigRatEED0Ev
libCGAL_Core.so.13:_ZN4CORE12Realbase_forINS_6BigRatEED1Ev
libCGAL_Core.so.13:_ZN4CORE12Realbase_forINS_6BigRatEED2Ev
libCGAL_Core.so.13:_ZN4CORE12Realbase_forINS_6BigRatEEdlEPvm
libCGAL_Core.so.13:_ZN4CORE12Realbase_forINS_6BigRatEEnwEm
libCGAL_Core.so.13:_ZN4CORE12Realbase_forINS_8BigFloatEED0Ev
libCGAL_Core.so.13:_ZN4CORE12Realbase_forINS_8BigFloatEED1Ev
libCGAL_Core.so.13:_ZN4CORE12Realbase_forINS_8BigFloatEED2Ev
libCGAL_Core.so.13:_ZN4CORE12Realbase_forINS_8BigFloatEEdlEPvm
libCGAL_Core.so.13:_ZN4CORE12Realbase_forINS_8BigFloatEEnwEm
libCGAL_Core.so.13:_ZN4CORE12Realbase_forIdED0Ev
libCGAL_Core.so.13:_ZN4CORE12Realbase_forIdED1Ev
libCGAL_Core.so.13:_ZN4CORE12Realbase_forIdED2Ev
libCGAL_Core.so.13:_ZN4CORE12Realbase_forIdEdlEPvm
libCGAL_Core.so.13:_ZN4CORE12Realbase_forIdEnwEm
libCGAL_Core.so.13:_ZN4CORE12Realbase_forIlED0Ev
libCGAL_Core.so.13:_ZN4CORE12Realbase_forIlED1Ev
libCGAL_Core.so.13:_ZN4CORE12Realbase_forIlED2Ev
libCGAL_Core.so.13:_ZN4CORE12Realbase_forIlEdlEPvm
libCGAL_Core.so.13:_ZN4CORE12Realbase_forIlEnwEm
libCGAL_Core.so.13:_ZN4CORE12readFromFileERNS_6BigIntERSil
libCGAL_Core.so.13:_ZN4CORE12readFromFileERNS_8BigFloatERSil
libCGAL_Core.so.13:_ZN4CORE14ConstDoubleRep17computeExactFlagsEv
libCGAL_Core.so.13:_ZN4CORE14ConstDoubleRep18computeApproxValueERKNS_7extLongES3_
libCGAL_Core.so.13:_ZN4CORE14ConstDoubleRepdlEPvm
libCGAL_Core.so.13:_ZN4CORE14ConstDoubleRepnwEm
libCGAL_Core.so.13:_ZN4CORE16read_base_numberERSiRNS_6BigIntEll
libCGAL_Core.so.13:_ZN4CORE17skip_comment_lineERSi
libCGAL_Core.so.13:_ZN4CORE17write_base_numberERSoPcmii
libCGAL_Core.so.13:_ZN4CORE21core_io_error_handlerEPKcS1_
libCGAL_Core.so.13:_ZN4CORE22__gmp_istream_set_baseERSiRcRbS2_
libCGAL_Core.so.13:_ZN4CORE22computeExactFlags_tempEPNS_8ConstRepERKNS_4RealE
libCGAL_Core.so.13:_ZN4CORE22core_io_memory_handlerEPcPKcS2_
libCGAL_Core.so.13:_ZN4CORE23skip_backslash_new_lineERSi
libCGAL_Core.so.13:_ZN4CORE24__gmp_istream_set_digitsERNSt7__cxx1112basic_stringIcSt11char_traitsIcESaIcEEERSiRcRbi
libCGAL_Core.so.13:_ZN4CORE3gcdEll
libCGAL_Core.so.13:_ZN4CORE3powERKNS_4ExprEm
libCGAL_Core.so.13:_ZN4CORE3powERKNS_4RealEm
libCGAL_Core.so.13:_ZN4CORE3powERKNS_8BigFloatEm
libCGAL_Core.so.13:_ZN4CORE4Expr6getOneEv
libCGAL_Core.so.13:_ZN4CORE4Expr7getZeroEv
libCGAL_Core.so.13:_ZN4CORE4Real19constructFromStringEPKcRKNS_7extLongE
libCGAL_Core.so.13:_ZN4CORE4Real7getZeroEv
libCGAL_Core.so.13:_ZN4CORE4clLgEl
libCGAL_Core.so.13:_ZN4CORE4clLgEm
libCGAL_Core.so.13:_ZN4CORE4rootERKNS_8BigFloatEmRKNS_7extLongES2_
libCGAL_Core.so.13:_ZN4CORE5floorERKNS_4ExprERS0_
libCGAL_Core.so.13:_ZN4CORE5floorERKNS_4RealERS0_
libCGAL_Core.so.13:_ZN4CORE5flrLgEl
libCGAL_Core.so.13:_ZN4CORE5flrLgEm
libCGAL_Core.so.13:_ZN4CORE6DivRep17computeExactFlagsEv
libCGAL_Core.so.13:_ZN4CORE6DivRep18computeApproxValueERKNS_7extLongES3_
libCGAL_Core.so.13:_ZN4CORE6DivRepdlEPvm
libCGAL_Core.so.13:_ZN4CORE6DivRepnwEm
libCGAL_Core.so.13:_ZN4CORE6FiveToEm
libCGAL_Core.so.13:_ZN4CORE6NegRep17computeExactFlagsEv
libCGAL_Core.so.13:_ZN4CORE6NegRep18computeApproxValueERKNS_7extLongES3_
libCGAL_Core.so.13:_ZN4CORE6NegRep5countEv
libCGAL_Core.so.13:_ZN4CORE6NegRepdlEPvm
libCGAL_Core.so.13:_ZN4CORE6NegRepnwEm
libCGAL_Core.so.13:_ZN4CORE7ExprRep11degreeBoundEv
libCGAL_Core.so.13:_ZN4CORE7ExprRep11getAppValueERKNS_7extLongES3_
libCGAL_Core.so.13:_ZN4CORE7ExprRep12computeBoundEv
libCGAL_Core.so.13:_ZN4CORE7ExprRep12reduceToZeroEv
libCGAL_Core.so.13:_ZN4CORE7ExprRep14reduceToBigRatERKNS_6BigRatE
libCGAL_Core.so.13:_ZN4CORE7ExprRep20withinKnownPrecisionERKNS_7extLongES3_
libCGAL_Core.so.13:_ZN4CORE7ExprRep6approxERKNS_7extLongES3_
libCGAL_Core.so.13:_ZN4CORE7ExprRep8reduceToEPKS0_
libCGAL_Core.so.13:_ZN4CORE7ExprRepC1Ev
libCGAL_Core.so.13:_ZN4CORE7ExprRepC2Ev
libCGAL_Core.so.13:_ZN4CORE7MultRep17computeExactFlagsEv
libCGAL_Core.so.13:_ZN4CORE7MultRep18computeApproxValueERKNS_7extLongES3_
libCGAL_Core.so.13:_ZN4CORE7MultRepdlEPvm
libCGAL_Core.so.13:_ZN4CORE7MultRepnwEm
libCGAL_Core.so.13:_ZN4CORE7SqrtRep17computeExactFlagsEv
libCGAL_Core.so.13:_ZN4CORE7SqrtRep18computeApproxValueERKNS_7extLongES3_
libCGAL_Core.so.13:_ZN4CORE7SqrtRep5countEv
libCGAL_Core.so.13:_ZN4CORE7SqrtRepdlEPvm
libCGAL_Core.so.13:_ZN4CORE7SqrtRepnwEm
libCGAL_Core.so.13:_ZN4CORE7extLong10getNaNLongEv
libCGAL_Core.so.13:_ZN4CORE7extLong11getNegInftyEv
libCGAL_Core.so.13:_ZN4CORE7extLong11getPosInftyEv
libCGAL_Core.so.13:_ZN4CORE7extLong3addERS0_ll
libCGAL_Core.so.13:_ZN4CORE7extLongdVERKS0_
libCGAL_Core.so.13:_ZN4CORE7extLongmIERKS0_
libCGAL_Core.so.13:_ZN4CORE7extLongmLERKS0_
libCGAL_Core.so.13:_ZN4CORE7extLongpLERKS0_
libCGAL_Core.so.13:_ZN4CORE7io_readERSiP12__mpq_struct
libCGAL_Core.so.13:_ZN4CORE7io_readERSiP12__mpz_struct
libCGAL_Core.so.13:_ZN4CORE8BigFloat6getOneEv
libCGAL_Core.so.13:_ZN4CORE8BigFloat7getZeroEv
libCGAL_Core.so.13:_ZN4CORE8BigFloatC1ERKNS_4ExprERKNS_7extLongES6_
libCGAL_Core.so.13:_ZN4CORE8BigFloatC2ERKNS_4ExprERKNS_7extLongES6_
libCGAL_Core.so.13:_ZN4CORE8BinOpRep12initNodeInfoEv
libCGAL_Core.so.13:_ZN4CORE8BinOpRep5countEv
libCGAL_Core.so.13:_ZN4CORE8BinOpRep9clearFlagEv
libCGAL_Core.so.13:_ZN4CORE8ConstRep12initNodeInfoEv
libCGAL_Core.so.13:_ZN4CORE8ConstRep5countEv
libCGAL_Core.so.13:_ZN4CORE8NodeInfoC1Ev
libCGAL_Core.so.13:_ZN4CORE8NodeInfoC2Ev
libCGAL_Core.so.13:_ZN4CORE8allocateERPcii
libCGAL_Core.so.13:_ZN4CORE8io_writeERSoPK12__mpq_struct
libCGAL_Core.so.13:_ZN4CORE8io_writeERSoPK12__mpz_struct
libCGAL_Core.so.13:_ZN4CORE9AddSubRepINS_3AddEE17computeExactFlagsEv
libCGAL_Core.so.13:_ZN4CORE9AddSubRepINS_3AddEE18computeApproxValueERKNS_7extLongES5_
libCGAL_Core.so.13:_ZN4CORE9AddSubRepINS_3AddEEC1EPNS_7ExprRepES4_
libCGAL_Core.so.13:_ZN4CORE9AddSubRepINS_3AddEEC2EPNS_7ExprRepES4_
libCGAL_Core.so.13:_ZN4CORE9AddSubRepINS_3AddEED0Ev
libCGAL_Core.so.13:_ZN4CORE9AddSubRepINS_3AddEED1Ev
libCGAL_Core.so.13:_ZN4CORE9AddSubRepINS_3AddEED2Ev
libCGAL_Core.so.13:_ZN4CORE9AddSubRepINS_3AddEEdlEPvm
libCGAL_Core.so.13:_ZN4CORE9AddSubRepINS_3AddEEnwEm
libCGAL_Core.so.13:_ZN4CORE9AddSubRepINS_3SubEE17computeExactFlagsEv
libCGAL_Core.so.13:_ZN4CORE9AddSubRepINS_3SubEE18computeApproxValueERKNS_7extLongES5_
libCGAL_Core.so.13:_ZN4CORE9AddSubRepINS_3SubEEC1EPNS_7ExprRepES4_
libCGAL_Core.so.13:_ZN4CORE9AddSubRepINS_3SubEEC2EPNS_7ExprRepES4_
libCGAL_Core.so.13:_ZN4CORE9AddSubRepINS_3SubEED0Ev
libCGAL_Core.so.13:_ZN4CORE9AddSubRepINS_3SubEED1Ev
libCGAL_Core.so.13:_ZN4CORE9AddSubRepINS_3SubEED2Ev
libCGAL_Core.so.13:_ZN4CORE9AddSubRepINS_3SubEEdlEPvm
libCGAL_Core.so.13:_ZN4CORE9AddSubRepINS_3SubEEnwEm
libCGAL_Core.so.13:_ZN4CORE9BigIntRepdlEPvm
libCGAL_Core.so.13:_ZN4CORE9BigIntRepnwEm
libCGAL_Core.so.13:_ZN4CORE9BigRatRepdlEPvm
libCGAL_Core.so.13:_ZN4CORE9BigRatRepnwEm
libCGAL_Core.so.13:_ZN4CORE9core_itoaEiPci
libCGAL_Core.so.13:_ZN4CORElsERSoRKNS_7extLongE
libCGAL_Core.so.13:_ZN4CORElsERSoRNS_7ExprRepE
libCGAL_Core.so.13:_ZN4CORErsERSiRNS_4RealE
libCGAL_Core.so.13:_ZN5boost19thread_specific_ptrIN4CORE10MemoryPoolINS1_11BigFloatRepELi1024EEEE14cleanup_callerEPFvPvES6_
libCGAL_Core.so.13:_ZN5boost19thread_specific_ptrIN4CORE10MemoryPoolINS1_11BigFloatRepELi1024EEEE15default_deleterEPS4_
libCGAL_Core.so.13:_ZN5boost19thread_specific_ptrIN4CORE10MemoryPoolINS1_12ConstPolyRepINS1_4ExprEEELi1024EEEE14cleanup_callerEPFvPvES8_
libCGAL_Core.so.13:_ZN5boost19thread_specific_ptrIN4CORE10MemoryPoolINS1_12ConstPolyRepINS1_4ExprEEELi1024EEEE15default_deleterEPS6_
libCGAL_Core.so.13:_ZN5boost19thread_specific_ptrIN4CORE10MemoryPoolINS1_12ConstPolyRepINS1_6BigIntEEELi1024EEEE14cleanup_callerEPFvPvES8_
libCGAL_Core.so.13:_ZN5boost19thread_specific_ptrIN4CORE10MemoryPoolINS1_12ConstPolyRepINS1_6BigIntEEELi1024EEEE15default_deleterEPS6_
libCGAL_Core.so.13:_ZN5boost19thread_specific_ptrIN4CORE10MemoryPoolINS1_12ConstPolyRepINS1_6BigRatEEELi1024EEEE14cleanup_callerEPFvPvES8_
libCGAL_Core.so.13:_ZN5boost19thread_specific_ptrIN4CORE10MemoryPoolINS1_12ConstPolyRepINS1_6BigRatEEELi1024EEEE15default_deleterEPS6_
libCGAL_Core.so.13:_ZN5boost19thread_specific_ptrIN4CORE10MemoryPoolINS1_12ConstPolyRepINS1_8BigFloatEEELi1024EEEE14cleanup_callerEPFvPvES8_
libCGAL_Core.so.13:_ZN5boost19thread_specific_ptrIN4CORE10MemoryPoolINS1_12ConstPolyRepINS1_8BigFloatEEELi1024EEEE15default_deleterEPS6_
libCGAL_Core.so.13:_ZN5boost19thread_specific_ptrIN4CORE10MemoryPoolINS1_12ConstRealRepELi1024EEEE14cleanup_callerEPFvPvES6_
libCGAL_Core.so.13:_ZN5boost19thread_specific_ptrIN4CORE10MemoryPoolINS1_12ConstRealRepELi1024EEEE15default_deleterEPS4_
libCGAL_Core.so.13:_ZN5boost19thread_specific_ptrIN4CORE10MemoryPoolINS1_12Realbase_forINS1_6BigIntEEELi1024EEEE14cleanup_callerEPFvPvES8_
libCGAL_Core.so.13:_ZN5boost19thread_specific_ptrIN4CORE10MemoryPoolINS1_12Realbase_forINS1_6BigIntEEELi1024EEEE15default_deleterEPS6_
libCGAL_Core.so.13:_ZN5boost19thread_specific_ptrIN4CORE10MemoryPoolINS1_12Realbase_forINS1_6BigRatEEELi1024EEEE14cleanup_callerEPFvPvES8_
libCGAL_Core.so.13:_ZN5boost19thread_specific_ptrIN4CORE10MemoryPoolINS1_12Realbase_forINS1_6BigRatEEELi1024EEEE15default_deleterEPS6_
libCGAL_Core.so.13:_ZN5boost19thread_specific_ptrIN4CORE10MemoryPoolINS1_12Realbase_forINS1_8BigFloatEEELi1024EEEE14cleanup_callerEPFvPvES8_
libCGAL_Core.so.13:_ZN5boost19thread_specific_ptrIN4CORE10MemoryPoolINS1_12Realbase_forINS1_8BigFloatEEELi1024EEEE15default_deleterEPS6_
libCGAL_Core.so.13:_ZN5boost19thread_specific_ptrIN4CORE10MemoryPoolINS1_12Realbase_forIdEELi1024EEEE14cleanup_callerEPFvPvES7_
libCGAL_Core.so.13:_ZN5boost19thread_specific_ptrIN4CORE10MemoryPoolINS1_12Realbase_forIdEELi1024EEEE15default_deleterEPS5_
libCGAL_Core.so.13:_ZN5boost19thread_specific_ptrIN4CORE10MemoryPoolINS1_12Realbase_forIlEELi1024EEEE14cleanup_callerEPFvPvES7_
libCGAL_Core.so.13:_ZN5boost19thread_specific_ptrIN4CORE10MemoryPoolINS1_12Realbase_forIlEELi1024EEEE15default_deleterEPS5_
libCGAL_Core.so.13:_ZN5boost19thread_specific_ptrIN4CORE10MemoryPoolINS1_14ConstDoubleRepELi1024EEEE14cleanup_callerEPFvPvES6_
libCGAL_Core.so.13:_ZN5boost19thread_specific_ptrIN4CORE10MemoryPoolINS1_14ConstDoubleRepELi1024EEEE15default_deleterEPS4_
libCGAL_Core.so.13:_ZN5boost19thread_specific_ptrIN4CORE10MemoryPoolINS1_6DivRepELi1024EEEE14cleanup_callerEPFvPvES6_
libCGAL_Core.so.13:_ZN5boost19thread_specific_ptrIN4CORE10MemoryPoolINS1_6DivRepELi1024EEEE15default_deleterEPS4_
libCGAL_Core.so.13:_ZN5boost19thread_specific_ptrIN4CORE10MemoryPoolINS1_6NegRepELi1024EEEE14cleanup_callerEPFvPvES6_
libCGAL_Core.so.13:_ZN5boost19thread_specific_ptrIN4CORE10MemoryPoolINS1_6NegRepELi1024EEEE15default_deleterEPS4_
libCGAL_Core.so.13:_ZN5boost19thread_specific_ptrIN4CORE10MemoryPoolINS1_7MultRepELi1024EEEE14cleanup_callerEPFvPvES6_
libCGAL_Core.so.13:_ZN5boost19thread_specific_ptrIN4CORE10MemoryPoolINS1_7MultRepELi1024EEEE15default_deleterEPS4_
libCGAL_Core.so.13:_ZN5boost19thread_specific_ptrIN4CORE10MemoryPoolINS1_7SqrtRepELi1024EEEE14cleanup_callerEPFvPvES6_
libCGAL_Core.so.13:_ZN5boost19thread_specific_ptrIN4CORE10MemoryPoolINS1_7SqrtRepELi1024EEEE15default_deleterEPS4_
libCGAL_Core.so.13:_ZN5boost19thread_specific_ptrIN4CORE10MemoryPoolINS1_9AddSubRepINS1_3AddEEELi1024EEEE14cleanup_callerEPFvPvES8_
libCGAL_Core.so.13:_ZN5boost19thread_specific_ptrIN4CORE10MemoryPoolINS1_9AddSubRepINS1_3AddEEELi1024EEEE15default_deleterEPS6_
libCGAL_Core.so.13:_ZN5boost19thread_specific_ptrIN4CORE10MemoryPoolINS1_9AddSubRepINS1_3SubEEELi1024EEEE14cleanup_callerEPFvPvES8_
libCGAL_Core.so.13:_ZN5boost19thread_specific_ptrIN4CORE10MemoryPoolINS1_9AddSubRepINS1_3SubEEELi1024EEEE15default_deleterEPS6_
libCGAL_Core.so.13:_ZN5boost19thread_specific_ptrIN4CORE10MemoryPoolINS1_9BigIntRepELi1024EEEE14cleanup_callerEPFvPvES6_
libCGAL_Core.so.13:_ZN5boost19thread_specific_ptrIN4CORE10MemoryPoolINS1_9BigIntRepELi1024EEEE15default_deleterEPS4_
libCGAL_Core.so.13:_ZN5boost19thread_specific_ptrIN4CORE10MemoryPoolINS1_9BigRatRepELi1024EEEE14cleanup_callerEPFvPvES6_
libCGAL_Core.so.13:_ZN5boost19thread_specific_ptrIN4CORE10MemoryPoolINS1_9BigRatRepELi1024EEEE15default_deleterEPS4_
libCGAL_Core.so.13:_ZNK4CORE10UnaryOpRep9debugListEii
libCGAL_Core.so.13:_ZNK4CORE10UnaryOpRep9debugTreeEiii
libCGAL_Core.so.13:_ZNK4CORE11BigFloatRep11compareMExpERKS0_
libCGAL_Core.so.13:_ZNK4CORE11BigFloatRep5roundENSt7__cxx1112basic_stringIcSt11char_traitsIcESaIcEEERlj
libCGAL_Core.so.13:_ZNK4CORE11BigFloatRep6toLongEv
libCGAL_Core.so.13:_ZNK4CORE11BigFloatRep7adjustEElNS_6BigIntEl
libCGAL_Core.so.13:_ZNK4CORE11BigFloatRep8toBigIntEv
libCGAL_Core.so.13:_ZNK4CORE11BigFloatRep8toDoubleEv
libCGAL_Core.so.13:_ZNK4CORE11BigFloatRep9toDecimalEjb
libCGAL_Core.so.13:_ZNK4CORE12Realbase_forINS_6BigIntEE11BigRatValueEv
libCGAL_Core.so.13:_ZNK4CORE12Realbase_forINS_6BigIntEE11doubleValueEv
libCGAL_Core.so.13:_ZNK4CORE12Realbase_forINS_6BigIntEE13BigFloatValueEv
libCGAL_Core.so.13:_ZNK4CORE12Realbase_forINS_6BigIntEE4sqrtERKNS_7extLongE
libCGAL_Core.so.13:_ZNK4CORE12Realbase_forINS_6BigIntEE4sqrtERKNS_7extLongERKNS_8BigFloatE
libCGAL_Core.so.13:_ZNK4CORE12Realbase_forINS_6BigIntEE6approxERKNS_7extLongES5_
libCGAL_Core.so.13:_ZNK4CORE12Realbase_forINS_6BigIntEE6degreeEv
libCGAL_Core.so.13:_ZNK4CORE12Realbase_forINS_6BigIntEE7clLgErrEv
libCGAL_Core.so.13:_ZNK4CORE12Realbase_forINS_6BigIntEE7isExactEv
libCGAL_Core.so.13:_ZNK4CORE12Realbase_forINS_6BigIntEE8flrLgErrEv
libCGAL_Core.so.13:_ZNK4CORE12Realbase_forINS_6BigIntEE9longValueEv
libCGAL_Core.so.13:_ZNK4CORE12Realbase_forINS_6BigIntEElsERSo
libCGAL_Core.so.13:_ZNK4CORE12Realbase_forINS_6BigIntEEngEv
libCGAL_Core.so.13:_ZNK4CORE12Realbase_forINS_6BigRatEE11doubleValueEv
libCGAL_Core.so.13:_ZNK4CORE12Realbase_forINS_6BigRatEE13BigFloatValueEv
libCGAL_Core.so.13:_ZNK4CORE12Realbase_forINS_6BigRatEE4sqrtERKNS_7extLongE
libCGAL_Core.so.13:_ZNK4CORE12Realbase_forINS_6BigRatEE4sqrtERKNS_7extLongERKNS_8BigFloatE
libCGAL_Core.so.13:_ZNK4CORE12Realbase_forINS_6BigRatEE6approxERKNS_7extLongES5_
libCGAL_Core.so.13:_ZNK4CORE12Realbase_forINS_6BigRatEE6degreeEv
libCGAL_Core.so.13:_ZNK4CORE12Realbase_forINS_6BigRatEE7clLgErrEv
libCGAL_Core.so.13:_ZNK4CORE12Realbase_forINS_6BigRatEE7isExactEv
libCGAL_Core.so.13:_ZNK4CORE12Realbase_forINS_6BigRatEE8flrLgErrEv
libCGAL_Core.so.13:_ZNK4CORE12Realbase_forINS_6BigRatEE9longValueEv
libCGAL_Core.so.13:_ZNK4CORE12Realbase_forINS_6BigRatEElsERSo
libCGAL_Core.so.13:_ZNK4CORE12Realbase_forINS_6BigRatEEngEv
libCGAL_Core.so.13:_ZNK4CORE12Realbase_forINS_8BigFloatEE11doubleValueEv
libCGAL_Core.so.13:_ZNK4CORE12Realbase_forINS_8BigFloatEE4sqrtERKNS_7extLongE
libCGAL_Core.so.13:_ZNK4CORE12Realbase_forINS_8BigFloatEE4sqrtERKNS_7extLongERKS1_
libCGAL_Core.so.13:_ZNK4CORE12Realbase_forINS_8BigFloatEE6approxERKNS_7extLongES5_
libCGAL_Core.so.13:_ZNK4CORE12Realbase_forINS_8BigFloatEE6degreeEv
libCGAL_Core.so.13:_ZNK4CORE12Realbase_forINS_8BigFloatEE9longValueEv
libCGAL_Core.so.13:_ZNK4CORE12Realbase_forINS_8BigFloatEElsERSo
libCGAL_Core.so.13:_ZNK4CORE12Realbase_forINS_8BigFloatEEngEv
libCGAL_Core.so.13:_ZNK4CORE12Realbase_forIdE11BigIntValueEv
libCGAL_Core.so.13:_ZNK4CORE12Realbase_forIdE11BigRatValueEv
libCGAL_Core.so.13:_ZNK4CORE12Realbase_forIdE13BigFloatValueEv
libCGAL_Core.so.13:_ZNK4CORE12Realbase_forIdE3sgnEv
libCGAL_Core.so.13:_ZNK4CORE12Realbase_forIdE4sqrtERKNS_7extLongE
libCGAL_Core.so.13:_ZNK4CORE12Realbase_forIdE4sqrtERKNS_7extLongERKNS_8BigFloatE
libCGAL_Core.so.13:_ZNK4CORE12Realbase_forIdE6degreeEv
libCGAL_Core.so.13:_ZNK4CORE12Realbase_forIdE7clLgErrEv
libCGAL_Core.so.13:_ZNK4CORE12Realbase_forIdE7isExactEv
libCGAL_Core.so.13:_ZNK4CORE12Realbase_forIdE8flrLgErrEv
libCGAL_Core.so.13:_ZNK4CORE12Realbase_forIdE8isZeroInEv
libCGAL_Core.so.13:_ZNK4CORE12Realbase_forIdE8toStringB5cxx11Elb
libCGAL_Core.so.13:_ZNK4CORE12Realbase_forIdElsERSo
libCGAL_Core.so.13:_ZNK4CORE12Realbase_forIdEngEv
libCGAL_Core.so.13:_ZNK4CORE12Realbase_forIlE11BigIntValueEv
libCGAL_Core.so.13:_ZNK4CORE12Realbase_forIlE11BigRatValueEv
libCGAL_Core.so.13:_ZNK4CORE12Realbase_forIlE13BigFloatValueEv
libCGAL_Core.so.13:_ZNK4CORE12Realbase_forIlE3sgnEv
libCGAL_Core.so.13:_ZNK4CORE12Realbase_forIlE4sqrtERKNS_7extLongE
libCGAL_Core.so.13:_ZNK4CORE12Realbase_forIlE4sqrtERKNS_7extLongERKNS_8BigFloatE
libCGAL_Core.so.13:_ZNK4CORE12Realbase_forIlE6degreeEv
libCGAL_Core.so.13:_ZNK4CORE12Realbase_forIlE7clLgErrEv
libCGAL_Core.so.13:_ZNK4CORE12Realbase_forIlE7isExactEv
libCGAL_Core.so.13:_ZNK4CORE12Realbase_forIlE8flrLgErrEv
libCGAL_Core.so.13:_ZNK4CORE12Realbase_forIlE8isZeroInEv
libCGAL_Core.so.13:_ZNK4CORE12Realbase_forIlE8toStringB5cxx11Elb
libCGAL_Core.so.13:_ZNK4CORE12Realbase_forIlElsERSo
libCGAL_Core.so.13:_ZNK4CORE4Expr14doubleIntervalERdS1_
libCGAL_Core.so.13:_ZNK4CORE4Expr5debugEiii
libCGAL_Core.so.13:_ZNK4CORE7ExprRep4dumpB5cxx11Ei
libCGAL_Core.so.13:_ZNK4CORE7extLong4signEv
libCGAL_Core.so.13:_ZNK4CORE7extLongngEv
libCGAL_Core.so.13:_ZNK4CORE8BinOpRep9debugListEii
libCGAL_Core.so.13:_ZNK4CORE8BinOpRep9debugTreeEiii
libCGAL_Core.so.13:_ZNK4CORE8ConstRep9debugListEii
libCGAL_Core.so.13:_ZNK4CORE8ConstRep9debugTreeEiii
libCGAL_Core.so.13:_ZNK4CORE9AddSubRepINS_3AddEE2opB5cxx11Ev
libCGAL_Core.so.13:_ZNK4CORE9AddSubRepINS_3SubEE2opB5cxx11Ev
libCGAL_ImageIO.so.14:_Z10_freeImageP11point_image
libCGAL_ImageIO.so.14:_Z10_initImagev
libCGAL_ImageIO.so.14:_Z10_readImagePKc
libCGAL_ImageIO.so.14:_Z11_writeImageP11point_imagePKc
libCGAL_ImageIO.so.14:_Z11reflectYRGBP3RGBii
libCGAL_ImageIO.so.14:_Z12ImageIO_freePv
libCGAL_ImageIO.so.14:_Z12ImageIO_getsPK11point_imagePci
libCGAL_ImageIO.so.14:_Z12ImageIO_readPK11point_imagePvm
libCGAL_ImageIO.so.14:_Z12ImageIO_seekPK11point_imageli
libCGAL_ImageIO.so.14:_Z12Laplacian_2DPv9ImageTypeS_S0_PiS1_Pf19recursiveFilterType
libCGAL_ImageIO.so.14:_Z12_createImageiiiifffi9WORD_KIND4SIGN
libCGAL_ImageIO.so.14:_Z12readBmpImagePKcP11point_image
libCGAL_ImageIO.so.14:_Z12readGifImagePKcP11point_image
libCGAL_ImageIO.so.14:_Z12readPgmImagePKcP11point_image
libCGAL_ImageIO.so.14:_Z12readPpmImagePKcP11point_image
libCGAL_ImageIO.so.14:_Z12reflectYcharPcii
libCGAL_ImageIO.so.14:_Z12triLinInterpPK11point_imageffff
libCGAL_ImageIO.so.14:_Z12writeAnalyzePcP11point_image
libCGAL_ImageIO.so.14:_Z12writeGisDataPK11point_image
libCGAL_ImageIO.so.14:_Z13ConvertBufferPv9ImageTypeS_S0_i
libCGAL_ImageIO.so.14:_Z13ImageIO_allocm
libCGAL_ImageIO.so.14:_Z13ImageIO_closeP11point_image
libCGAL_ImageIO.so.14:_Z13ImageIO_errorPK11point_image
libCGAL_ImageIO.so.14:_Z13ImageIO_writePK11point_imagePKvm
libCGAL_ImageIO.so.14:_Z13IoBmp_verbosev
libCGAL_ImageIO.so.14:_Z13_readBmpImagePKcPiS1_S1_
libCGAL_ImageIO.so.14:_Z13readGisHeaderPKcP11point_image
libCGAL_ImageIO.so.14:_Z13readIrisImagePKcP11point_image
libCGAL_ImageIO.so.14:_Z13testBmpHeaderPcPKc
libCGAL_ImageIO.so.14:_Z13testGifHeaderPcPKc
libCGAL_ImageIO.so.14:_Z13testGisHeaderPcPKc
libCGAL_ImageIO.so.14:_Z13testPgmHeaderPcPKc
libCGAL_ImageIO.so.14:_Z13testPpmHeaderPcPKc
libCGAL_ImageIO.so.14:_Z13writeInrimagePcP11point_image
libCGAL_ImageIO.so.14:_Z13writePgmImagePcP11point_image
libCGAL_ImageIO.so.14:_Z13writePpmImagePcP11point_image
libCGAL_ImageIO.so.14:_Z14_getEndiannessv
libCGAL_ImageIO.so.14:_Z14_openReadImageP11point_imagePKc
libCGAL_ImageIO.so.14:_Z14_readImageDataP11point_image
libCGAL_ImageIO.so.14:_Z14_readImage_rawPKcjjjdddjm9WORD_KIND4SIGN
libCGAL_ImageIO.so.14:_Z14addImageFormatP8imformat
libCGAL_ImageIO.so.14:_Z14readColorTableP8_IO_FILEP3RGBii
libCGAL_ImageIO.so.14:_Z14readINT8littleP8_IO_FILEPc
libCGAL_ImageIO.so.14:_Z14testIrisHeaderPcPKc
libCGAL_ImageIO.so.14:_Z14writeGisHeaderPK11point_image
libCGAL_ImageIO.so.14:_Z15GradientModulusPv9ImageTypeS_S0_PiS1_Pf19recursiveFilterType
libCGAL_ImageIO.so.14:_Z15IoBmp_noverbosev
libCGAL_ImageIO.so.14:_Z15Recline_verbosev
libCGAL_ImageIO.so.14:_Z15_openWriteImageP11point_imagePKc
libCGAL_ImageIO.so.14:_Z15createBMPFormatv
libCGAL_ImageIO.so.14:_Z15createGifFormatv
libCGAL_ImageIO.so.14:_Z15createGisFormatv
libCGAL_ImageIO.so.14:_Z15createPgmFormatv
libCGAL_ImageIO.so.14:_Z15createPpmFormatv
libCGAL_ImageIO.so.14:_Z15readINT16littleP8_IO_FILEPs
libCGAL_ImageIO.so.14:_Z15readINT32littleP8_IO_FILEPi
libCGAL_ImageIO.so.14:_Z15readUINT8littleP8_IO_FILEPh
libCGAL_ImageIO.so.14:_Z15writeINT8littleP8_IO_FILEc
libCGAL_ImageIO.so.14:_Z16Reech4x4_verbosev
libCGAL_ImageIO.so.14:_Z16_readImageHeaderPKc
libCGAL_ImageIO.so.14:_Z16createIrisFormatv
libCGAL_ImageIO.so.14:_Z16firstImageFormatv
libCGAL_ImageIO.so.14:_Z16readBitmapHeaderP8_IO_FILEP12BITMAPHEADER
libCGAL_ImageIO.so.14:_Z16readUINT16littleP8_IO_FILEPt
libCGAL_ImageIO.so.14:_Z16readUINT32littleP8_IO_FILEPj
libCGAL_ImageIO.so.14:_Z16writeAnalyzeDataPK11point_image
libCGAL_ImageIO.so.14:_Z16writeINT16littleP8_IO_FILEs
libCGAL_ImageIO.so.14:_Z16writeINT32littleP8_IO_FILEi
libCGAL_ImageIO.so.14:_Z16writeUINT8littleP8_IO_FILEh
libCGAL_ImageIO.so.14:_Z17Convert_r32_to_s8PfPci
libCGAL_ImageIO.so.14:_Z17Convert_r32_to_u8PfPhi
libCGAL_ImageIO.so.14:_Z17ImageIO_limit_lenm
libCGAL_ImageIO.so.14:_Z17Recbuffer_verbosev
libCGAL_ImageIO.so.14:_Z17Recline_noverbosev
libCGAL_ImageIO.so.14:_Z17RecursiveFilter1DP17RFcoefficientTypePdS1_S1_S1_i
libCGAL_ImageIO.so.14:_Z17readAnalyzeHeaderPKcP11point_image
libCGAL_ImageIO.so.14:_Z17readMultipleImageP8_IO_FILEPPP3RGBPPPcS7_PPjS9_Pi
libCGAL_ImageIO.so.14:_Z17readPgmAsciiImagePKcP11point_image
libCGAL_ImageIO.so.14:_Z17testAnalyzeHeaderPcPKc
libCGAL_ImageIO.so.14:_Z17writeUINT16littleP8_IO_FILEt
libCGAL_ImageIO.so.14:_Z17writeUINT32littleP8_IO_FILEj
libCGAL_ImageIO.so.14:_Z18Convert_r32_to_s16PfPsi
libCGAL_ImageIO.so.14:_Z18Convert_r32_to_u16PfPti
libCGAL_ImageIO.so.14:_Z18ImageIO_limit_readm
libCGAL_ImageIO.so.14:_Z18Reech4x4_noverbosev
libCGAL_ImageIO.so.14:_Z18_readAnalyzeHeaderP11point_imagePKcP3dsr
libCGAL_ImageIO.so.14:_Z18_writeInrimageDataPK11point_image
libCGAL_ImageIO.so.14:_Z18printAnalyzeHeaderPKc
libCGAL_ImageIO.so.14:_Z18readInrimageHeaderPKcP11point_image
libCGAL_ImageIO.so.14:_Z18readSingleImageBMPP8_IO_FILEPP3RGBPjS4_
libCGAL_ImageIO.so.14:_Z18testInrimageHeaderPcPKc
libCGAL_ImageIO.so.14:_Z18testPgmAsciiHeaderPcPKc
libCGAL_ImageIO.so.14:_Z18writeAnalyzeHeaderPK11point_image
libCGAL_ImageIO.so.14:_Z19Recbuffer_noverbosev
libCGAL_ImageIO.so.14:_Z19Reech2DTriLin4x4_s8PvPiS_S0_Pd
libCGAL_ImageIO.so.14:_Z19Reech2DTriLin4x4_u8PvPiS_S0_Pd
libCGAL_ImageIO.so.14:_Z19Reech3DTriLin4x4_s8PvPiS_S0_Pd
libCGAL_ImageIO.so.14:_Z19Reech3DTriLin4x4_u8PvPiS_S0_Pd
libCGAL_ImageIO.so.14:_Z19addImageFormatAtEndP8imformat
libCGAL_ImageIO.so.14:_Z19createAnalyzeFormatv
libCGAL_ImageIO.so.14:_Z20Reech2DNearest4x4_s8PvPiS_S0_Pd
libCGAL_ImageIO.so.14:_Z20Reech2DNearest4x4_u8PvPiS_S0_Pd
libCGAL_ImageIO.so.14:_Z20Reech2DTriLin4x4_r32PvPiS_S0_Pd
libCGAL_ImageIO.so.14:_Z20Reech2DTriLin4x4_s16PvPiS_S0_Pd
libCGAL_ImageIO.so.14:_Z20Reech2DTriLin4x4_u16PvPiS_S0_Pd
libCGAL_ImageIO.so.14:_Z20Reech3DNearest4x4_s8PvPiS_S0_Pd
libCGAL_ImageIO.so.14:_Z20Reech3DNearest4x4_u8PvPiS_S0_Pd
libCGAL_ImageIO.so.14:_Z20Reech3DTriLin4x4_r32PvPiS_S0_Pd
libCGAL_ImageIO.so.14:_Z20Reech3DTriLin4x4_s16PvPiS_S0_Pd
libCGAL_ImageIO.so.14:_Z20Reech3DTriLin4x4_u16PvPiS_S0_Pd
libCGAL_ImageIO.so.14:_Z20_writeInrimageHeaderPK11point_image10ENDIANNESS
libCGAL_ImageIO.so.14:_Z20createInrimageFormatv
libCGAL_ImageIO.so.14:_Z20createPgmAscIIFormatv
libCGAL_ImageIO.so.14:_Z20readBitmapFileHeaderP8_IO_FILEP16Bitmapfileheader
libCGAL_ImageIO.so.14:_Z20readBitsUncompressedP8_IO_FILEP3RGBiiiS2_
libCGAL_ImageIO.so.14:_Z21Reech2DNearest4x4_r32PvPiS_S0_Pd
libCGAL_ImageIO.so.14:_Z21Reech2DNearest4x4_s16PvPiS_S0_Pd
libCGAL_ImageIO.so.14:_Z21Reech2DNearest4x4_u16PvPiS_S0_Pd
libCGAL_ImageIO.so.14:_Z21Reech2DTriLin4x4gb_s8PvPiS_S0_Pdff
libCGAL_ImageIO.so.14:_Z21Reech2DTriLin4x4gb_u8PvPiS_S0_Pdff
libCGAL_ImageIO.so.14:_Z21Reech3DNearest4x4_r32PvPiS_S0_Pd
libCGAL_ImageIO.so.14:_Z21Reech3DNearest4x4_s16PvPiS_S0_Pd
libCGAL_ImageIO.so.14:_Z21Reech3DNearest4x4_u16PvPiS_S0_Pd
libCGAL_ImageIO.so.14:_Z21Reech3DTriLin4x4gb_s8PvPiS_S0_Pdff
libCGAL_ImageIO.so.14:_Z21Reech3DTriLin4x4gb_u8PvPiS_S0_Pdff
libCGAL_ImageIO.so.14:_Z21readBitmapArrayHeaderP8_IO_FILEP17BITMAPARRAYHEADER
libCGAL_ImageIO.so.14:_Z21readSingleImageICOPTRP8_IO_FILEPPcS2_PjS3_
libCGAL_ImageIO.so.14:_Z22Reech2DTriLin4x4gb_r32PvPiS_S0_Pdff
libCGAL_ImageIO.so.14:_Z22Reech2DTriLin4x4gb_s16PvPiS_S0_Pdff
libCGAL_ImageIO.so.14:_Z22Reech2DTriLin4x4gb_u16PvPiS_S0_Pdff
libCGAL_ImageIO.so.14:_Z22Reech3DTriLin4x4gb_r32PvPiS_S0_Pdff
libCGAL_ImageIO.so.14:_Z22Reech3DTriLin4x4gb_s16PvPiS_S0_Pdff
libCGAL_ImageIO.so.14:_Z22Reech3DTriLin4x4gb_u16PvPiS_S0_Pdff
libCGAL_ImageIO.so.14:_Z23GradientHessianGradientPv9ImageTypeS_S0_PiS1_Pf19recursiveFilterType
libCGAL_ImageIO.so.14:_Z23RecursiveFilterOnBufferPv9ImageTypeS_S0_PiS1_P15derivativeOrderPf19recursiveFilterType
libCGAL_ImageIO.so.14:_Z23_get_image_bounding_boxP11point_imagePdS1_S1_S1_S1_S1_
libCGAL_ImageIO.so.14:_Z23_readNonInterlacedImagePKc
libCGAL_ImageIO.so.14:_Z23convertImageTypeToFloatP11point_image
libCGAL_ImageIO.so.14:_Z23initSupportedFileFormatv
libCGAL_ImageIO.so.14:_Z24printSupportedFileFormatv
libCGAL_ImageIO.so.14:_Z24readMaskBitsUncompressedP8_IO_FILEPcii
libCGAL_ImageIO.so.14:_Z25InitRecursiveCoefficientsd19recursiveFilterType15derivativeOrder
libCGAL_ImageIO.so.14:_Z25removeSupportedFileFormatv
libCGAL_ImageIO.so.14:_Z26GradientHessianGradient_2DPv9ImageTypeS_S0_PiS1_Pf19recursiveFilterType
libCGAL_ImageIO.so.14:_Z26_readNonInterlacedFileDataP11point_image
libCGAL_ImageIO.so.14:_Z26printRecursiveCoefficientsP17RFcoefficientType
libCGAL_ImageIO.so.14:_Z26readSingleImageColorICOPTRP8_IO_FILEPP3RGBPPcS5_PjS6_
libCGAL_ImageIO.so.14:_Z27_readImageHeaderAndGetErrorPKcPi
libCGAL_ImageIO.so.14:_Z27_readNonInterlacedImageDataP11point_image
libCGAL_ImageIO.so.14:_Z28setImageIOAllocationRoutinesPFPvmEPFvS_E
libCGAL_ImageIO.so.14:_Z3usei
libCGAL_ImageIO.so.14:_Z6fgetnsPciP11point_image
libCGAL_ImageIO.so.14:_Z7readRgbP8_IO_FILEP3RGBi
libCGAL_ImageIO.so.14:_Z8evaluatePK11point_imagemmm
libCGAL_ImageIO.so.14:_Z8writeGisPcP11point_image
libCGAL_ImageIO.so.14:_Z9LaplacianPv9ImageTypeS_S0_PiS1_Pf19recursiveFilterType
libCGAL_ImageIO.so.14:_Z9imageTypePKc
libCGAL_ImageIO.so.14:_ZN4CGAL7Image_312private_readEP11point_imageNS0_3OwnE
